target datalayout = "e-m:e-p270:32:32-p271:32:32-p272:64:64-i64:64-i128:128-f80:128-n8:16:32:64-S128"
target triple = "x86_64-pc-linux-gnu"

%struct.lxb_html_tree = type { ptr, ptr, ptr, ptr, ptr, ptr, ptr, %struct.lxb_html_tree_pending_table_t, ptr, i8, i8, i8, i8, i8, i8, ptr, ptr, ptr, i32, i64 }
%struct.lxb_html_tree_pending_table_t = type { ptr, i8 }
%struct.lexbor_array_t = type { ptr, i64, i64 }
%struct.lxb_dom_node = type { %struct.lxb_dom_event_target, i64, i64, i64, ptr, ptr, ptr, ptr, ptr, ptr, ptr, i32, i64 }
%struct.lxb_dom_event_target = type { ptr }

; Function Attrs: inlinehint nounwind uwtable
define internal ptr @lxb_html_tree_insert_html_element(ptr noundef %0, ptr noundef %1) #3 {
  %3 = alloca ptr, align 8
  %4 = alloca ptr, align 8
  store ptr %0, ptr %3, align 8, !tbaa !4
  store ptr %1, ptr %4, align 8, !tbaa !9
  %5 = load ptr, ptr %3, align 8, !tbaa !4
  %6 = load ptr, ptr %4, align 8, !tbaa !9
  %7 = call ptr @lxb_html_tree_insert_foreign_element(ptr noundef %5, ptr noundef %6, i64 noundef 2)
  ret ptr %7
}

; Function Attrs: inlinehint nounwind uwtable
define internal zeroext i1 @lxb_html_tag_is_category(i64 noundef %0, i64 noundef %1, i32 noundef %2) #3 {
  %4 = alloca i1, align 1
  %5 = alloca i64, align 8
  %6 = alloca i64, align 8
  %7 = alloca i32, align 4
  store i64 %0, ptr %5, align 8, !tbaa !50
  store i64 %1, ptr %6, align 8, !tbaa !50
  store i32 %2, ptr %7, align 4, !tbaa !85
  %8 = load i64, ptr %5, align 8, !tbaa !50
  %9 = icmp ult i64 %8, 196
  br i1 %9, label %10, label %22

10:                                               ; preds = %3
  %11 = load i64, ptr %6, align 8, !tbaa !50
  %12 = icmp ult i64 %11, 8
  br i1 %12, label %13, label %22

13:                                               ; preds = %10
  %14 = load i64, ptr %5, align 8, !tbaa !50
  %15 = getelementptr inbounds nuw [196 x [8 x i32]], ptr @lxb_html_tag_res_cats, i64 0, i64 %14
  %16 = load i64, ptr %6, align 8, !tbaa !50
  %17 = getelementptr inbounds nuw [8 x i32], ptr %15, i64 0, i64 %16
  %18 = load i32, ptr %17, align 4, !tbaa !85
  %19 = load i32, ptr %7, align 4, !tbaa !85
  %20 = and i32 %18, %19
  %21 = icmp ne i32 %20, 0
  store i1 %21, ptr %4, align 1
  br label %26

22:                                               ; preds = %10, %3
  %23 = load i32, ptr %7, align 4, !tbaa !85
  %24 = and i32 129, %23
  %25 = icmp ne i32 %24, 0
  store i1 %25, ptr %4, align 1
  br label %26

26:                                               ; preds = %22, %13
  %27 = load i1, ptr %4, align 1
  ret i1 %27
}

; Function Attrs: inlinehint nounwind uwtable
define internal ptr @lxb_html_tree_current_node(ptr noundef %0) #3 {
  %2 = alloca ptr, align 8
  %3 = alloca ptr, align 8
  store ptr %0, ptr %3, align 8, !tbaa !4
  %4 = load ptr, ptr %3, align 8, !tbaa !4
  %5 = getelementptr inbounds nuw %struct.lxb_html_tree, ptr %4, i32 0, i32 4
  %6 = load ptr, ptr %5, align 8, !tbaa !44
  %7 = getelementptr inbounds nuw %struct.lexbor_array_t, ptr %6, i32 0, i32 2
  %8 = load i64, ptr %7, align 8, !tbaa !49
  %9 = icmp eq i64 %8, 0
  br i1 %9, label %10, label %11

10:                                               ; preds = %1
  store ptr null, ptr %2, align 8
  br label %25

11:                                               ; preds = %1
  %12 = load ptr, ptr %3, align 8, !tbaa !4
  %13 = getelementptr inbounds nuw %struct.lxb_html_tree, ptr %12, i32 0, i32 4
  %14 = load ptr, ptr %13, align 8, !tbaa !44
  %15 = getelementptr inbounds nuw %struct.lexbor_array_t, ptr %14, i32 0, i32 0
  %16 = load ptr, ptr %15, align 8, !tbaa !45
  %17 = load ptr, ptr %3, align 8, !tbaa !4
  %18 = getelementptr inbounds nuw %struct.lxb_html_tree, ptr %17, i32 0, i32 4
  %19 = load ptr, ptr %18, align 8, !tbaa !44
  %20 = getelementptr inbounds nuw %struct.lexbor_array_t, ptr %19, i32 0, i32 2
  %21 = load i64, ptr %20, align 8, !tbaa !49
  %22 = sub i64 %21, 1
  %23 = getelementptr inbounds nuw ptr, ptr %16, i64 %22
  %24 = load ptr, ptr %23, align 8, !tbaa !9
  store ptr %24, ptr %2, align 8
  br label %25

25:                                               ; preds = %11, %10
  %26 = load ptr, ptr %2, align 8
  ret ptr %26
}

; Function Attrs: inlinehint nounwind uwtable
define internal zeroext i1 @lxb_html_tree_node_is(ptr noundef %0, i64 noundef %1) #3 {
  %3 = alloca ptr, align 8
  %4 = alloca i64, align 8
  store ptr %0, ptr %3, align 8, !tbaa !37
  store i64 %1, ptr %4, align 8, !tbaa !50
  %5 = load ptr, ptr %3, align 8, !tbaa !37
  %6 = getelementptr inbounds nuw %struct.lxb_dom_node, ptr %5, i32 0, i32 1
  %7 = load i64, ptr %6, align 8, !tbaa !51
  %8 = load i64, ptr %4, align 8, !tbaa !50
  %9 = icmp eq i64 %7, %8
  br i1 %9, label %10, label %15

10:                                               ; preds = %2
  %11 = load ptr, ptr %3, align 8, !tbaa !37
  %12 = getelementptr inbounds nuw %struct.lxb_dom_node, ptr %11, i32 0, i32 3
  %13 = load i64, ptr %12, align 8, !tbaa !55
  %14 = icmp eq i64 %13, 2
  br label %15

15:                                               ; preds = %10, %2
  %16 = phi i1 [ false, %2 ], [ %14, %10 ]
  ret i1 %16
}

; Function Attrs: inlinehint nounwind uwtable
define internal zeroext i1 @lxb_html_tree_insertion_mode_in_body_dd_dt(ptr noundef %0, ptr noundef %1) #3 {
  %3 = alloca i1, align 1
  %4 = alloca ptr, align 8
  %5 = alloca ptr, align 8
  %6 = alloca i8, align 1
  %7 = alloca ptr, align 8
  %8 = alloca ptr, align 8
  %9 = alloca ptr, align 8
  %10 = alloca i64, align 8
  %11 = alloca i32, align 4
  store ptr %0, ptr %4, align 8, !tbaa !4
  store ptr %1, ptr %5, align 8, !tbaa !9
  call void @llvm.lifetime.start.p0(i64 1, ptr %6) #5
  call void @llvm.lifetime.start.p0(i64 8, ptr %7) #5
  call void @llvm.lifetime.start.p0(i64 8, ptr %8) #5
  call void @llvm.lifetime.start.p0(i64 8, ptr %9) #5
  %12 = load ptr, ptr %4, align 8, !tbaa !4
  %13 = getelementptr inbounds nuw %struct.lxb_html_tree, ptr %12, i32 0, i32 4
  %14 = load ptr, ptr %13, align 8, !tbaa !44
  %15 = getelementptr inbounds nuw %struct.lexbor_array_t, ptr %14, i32 0, i32 0
  %16 = load ptr, ptr %15, align 8, !tbaa !45
  store ptr %16, ptr %9, align 8, !tbaa !9
  call void @llvm.lifetime.start.p0(i64 8, ptr %10) #5
  %17 = load ptr, ptr %4, align 8, !tbaa !4
  %18 = getelementptr inbounds nuw %struct.lxb_html_tree, ptr %17, i32 0, i32 4
  %19 = load ptr, ptr %18, align 8, !tbaa !44
  %20 = getelementptr inbounds nuw %struct.lexbor_array_t, ptr %19, i32 0, i32 2
  %21 = load i64, ptr %20, align 8, !tbaa !49
  store i64 %21, ptr %10, align 8, !tbaa !50
  %22 = load ptr, ptr %4, align 8, !tbaa !4
  %23 = getelementptr inbounds nuw %struct.lxb_html_tree, ptr %22, i32 0, i32 10
  store i8 0, ptr %23, align 1, !tbaa !28
  br label %24

24:                                               ; preds = %92, %2
  %25 = load i64, ptr %10, align 8, !tbaa !50
  %26 = icmp ne i64 %25, 0
  br i1 %26, label %27, label %93

27:                                               ; preds = %24
  %28 = load i64, ptr %10, align 8, !tbaa !50
  %29 = add i64 %28, -1
  store i64 %29, ptr %10, align 8, !tbaa !50
  %30 = load ptr, ptr %9, align 8, !tbaa !9
  %31 = load i64, ptr %10, align 8, !tbaa !50
  %32 = getelementptr inbounds nuw ptr, ptr %30, i64 %31
  %33 = load ptr, ptr %32, align 8, !tbaa !9
  store ptr %33, ptr %7, align 8, !tbaa !37
  %34 = load ptr, ptr %7, align 8, !tbaa !37
  %35 = call zeroext i1 @lxb_html_tree_node_is(ptr noundef %34, i64 noundef 44)
  br i1 %35, label %36, label %49

36:                                               ; preds = %27
  %37 = load ptr, ptr %4, align 8, !tbaa !4
  call void @lxb_html_tree_generate_implied_end_tags(ptr noundef %37, i64 noundef 44, i64 noundef 2)
  %38 = load ptr, ptr %4, align 8, !tbaa !4
  %39 = call ptr @lxb_html_tree_current_node(ptr noundef %38)
  store ptr %39, ptr %7, align 8, !tbaa !37
  %40 = load ptr, ptr %7, align 8, !tbaa !37
  %41 = call zeroext i1 @lxb_html_tree_node_is(ptr noundef %40, i64 noundef 44)
  %42 = zext i1 %41 to i32
  %43 = icmp eq i32 %42, 0
  br i1 %43, label %44, label %47

44:                                               ; preds = %36
  %45 = load ptr, ptr %4, align 8, !tbaa !4
  %46 = load ptr, ptr %5, align 8, !tbaa !9
  call void @lxb_html_tree_parse_error(ptr noundef %45, ptr noundef %46, i32 noundef 22)
  br label %47

47:                                               ; preds = %44, %36
  %48 = load ptr, ptr %4, align 8, !tbaa !4
  call void @lxb_html_tree_open_elements_pop_until_tag_id(ptr noundef %48, i64 noundef 44, i64 noundef 2, i1 noundef zeroext true)
  br label %93

49:                                               ; preds = %27
  %50 = load ptr, ptr %7, align 8, !tbaa !37
  %51 = call zeroext i1 @lxb_html_tree_node_is(ptr noundef %50, i64 noundef 53)
  br i1 %51, label %52, label %65

52:                                               ; preds = %49
  %53 = load ptr, ptr %4, align 8, !tbaa !4
  call void @lxb_html_tree_generate_implied_end_tags(ptr noundef %53, i64 noundef 53, i64 noundef 2)
  %54 = load ptr, ptr %4, align 8, !tbaa !4
  %55 = call ptr @lxb_html_tree_current_node(ptr noundef %54)
  store ptr %55, ptr %7, align 8, !tbaa !37
  %56 = load ptr, ptr %7, align 8, !tbaa !37
  %57 = call zeroext i1 @lxb_html_tree_node_is(ptr noundef %56, i64 noundef 53)
  %58 = zext i1 %57 to i32
  %59 = icmp eq i32 %58, 0
  br i1 %59, label %60, label %63

60:                                               ; preds = %52
  %61 = load ptr, ptr %4, align 8, !tbaa !4
  %62 = load ptr, ptr %5, align 8, !tbaa !9
  call void @lxb_html_tree_parse_error(ptr noundef %61, ptr noundef %62, i32 noundef 22)
  br label %63

63:                                               ; preds = %60, %52
  %64 = load ptr, ptr %4, align 8, !tbaa !4
  call void @lxb_html_tree_open_elements_pop_until_tag_id(ptr noundef %64, i64 noundef 53, i64 noundef 2, i1 noundef zeroext true)
  br label %93

65:                                               ; preds = %49
  %66 = load ptr, ptr %7, align 8, !tbaa !37
  %67 = getelementptr inbounds nuw %struct.lxb_dom_node, ptr %66, i32 0, i32 1
  %68 = load i64, ptr %67, align 8, !tbaa !51
  %69 = load ptr, ptr %7, align 8, !tbaa !37
  %70 = getelementptr inbounds nuw %struct.lxb_dom_node, ptr %69, i32 0, i32 3
  %71 = load i64, ptr %70, align 8, !tbaa !55
  %72 = call zeroext i1 @lxb_html_tag_is_category(i64 noundef %68, i64 noundef %71, i32 noundef 2)
  %73 = zext i1 %72 to i8
  store i8 %73, ptr %6, align 1, !tbaa !38
  %74 = load i8, ptr %6, align 1, !tbaa !38, !range !29, !noundef !30
  %75 = trunc i8 %74 to i1
  br i1 %75, label %76, label %92

76:                                               ; preds = %65
  %77 = load ptr, ptr %7, align 8, !tbaa !37
  %78 = call zeroext i1 @lxb_html_tree_node_is(ptr noundef %77, i64 noundef 9)
  %79 = zext i1 %78 to i32
  %80 = icmp eq i32 %79, 0
  br i1 %80, label %81, label %92

81:                                               ; preds = %76
  %82 = load ptr, ptr %7, align 8, !tbaa !37
  %83 = call zeroext i1 @lxb_html_tree_node_is(ptr noundef %82, i64 noundef 51)
  %84 = zext i1 %83 to i32
  %85 = icmp eq i32 %84, 0
  br i1 %85, label %86, label %92

86:                                               ; preds = %81
  %87 = load ptr, ptr %7, align 8, !tbaa !37
  %88 = call zeroext i1 @lxb_html_tree_node_is(ptr noundef %87, i64 noundef 145)
  %89 = zext i1 %88 to i32
  %90 = icmp eq i32 %89, 0
  br i1 %90, label %91, label %92

91:                                               ; preds = %86
  br label %93

92:                                               ; preds = %86, %81, %76, %65
  br label %24

93:                                               ; preds = %91, %63, %47, %24
  %94 = load ptr, ptr %4, align 8, !tbaa !4
  %95 = call ptr @lxb_html_tree_element_in_scope(ptr noundef %94, i64 noundef 145, i64 noundef 2, i32 noundef 32)
  store ptr %95, ptr %7, align 8, !tbaa !37
  %96 = load ptr, ptr %7, align 8, !tbaa !37
  %97 = icmp ne ptr %96, null
  br i1 %97, label %98, label %101

98:                                               ; preds = %93
  %99 = load ptr, ptr %4, align 8, !tbaa !4
  %100 = load ptr, ptr %5, align 8, !tbaa !9
  call void @lxb_html_tree_close_p_element(ptr noundef %99, ptr noundef %100)
  br label %101

101:                                              ; preds = %98, %93
  %102 = load ptr, ptr %4, align 8, !tbaa !4
  %103 = load ptr, ptr %5, align 8, !tbaa !9
  %104 = call ptr @lxb_html_tree_insert_html_element(ptr noundef %102, ptr noundef %103)
  store ptr %104, ptr %8, align 8, !tbaa !40
  %105 = load ptr, ptr %8, align 8, !tbaa !40
  %106 = icmp eq ptr %105, null
  br i1 %106, label %107, label %112

107:                                              ; preds = %101
  %108 = load ptr, ptr %4, align 8, !tbaa !4
  %109 = getelementptr inbounds nuw %struct.lxb_html_tree, ptr %108, i32 0, i32 18
  store i32 2, ptr %109, align 8, !tbaa !25
  %110 = load ptr, ptr %4, align 8, !tbaa !4
  %111 = call zeroext i1 @lxb_html_tree_process_abort(ptr noundef %110)
  store i1 %111, ptr %3, align 1
  store i32 1, ptr %11, align 4
  br label %113

112:                                              ; preds = %101
  store i1 true, ptr %3, align 1
  store i32 1, ptr %11, align 4
  br label %113

113:                                              ; preds = %112, %107
  call void @llvm.lifetime.end.p0(i64 8, ptr %10) #5
  call void @llvm.lifetime.end.p0(i64 8, ptr %9) #5
  call void @llvm.lifetime.end.p0(i64 8, ptr %8) #5
  call void @llvm.lifetime.end.p0(i64 8, ptr %7) #5
  call void @llvm.lifetime.end.p0(i64 1, ptr %6) #5
  %114 = load i1, ptr %3, align 1
  ret i1 %114
}