; Function Attrs: inlinehint nounwind uwtable
define internal fastcc zeroext i1 @lxb_html_tree_insertion_mode_in_body_dd_dt(ptr noundef initializes((81, 82)) %0, ptr noundef %1) unnamed_addr #3 {
  %3 = getelementptr inbounds nuw i8, ptr %0, i64 32
  %4 = load ptr, ptr %3, align 8, !tbaa !33
  %5 = load ptr, ptr %4, align 8, !tbaa !36
  %6 = getelementptr inbounds nuw i8, ptr %4, i64 16
  %7 = load i64, ptr %6, align 8, !tbaa !34
  %8 = getelementptr inbounds nuw i8, ptr %0, i64 81
  store i8 0, ptr %8, align 1, !tbaa !25
  %.not53 = icmp eq i64 %7, 0
  br i1 %.not53, label %lxb_html_tree_node_is.exit47.thread, label %.lr.ph

.lr.ph:                                           ; preds = %2, %.lr.ph.backedge
  %.054 = phi i64 [ %9, %.lr.ph.backedge ], [ %7, %2 ]
  %9 = add i64 %.054, -1
  %10 = getelementptr inbounds nuw ptr, ptr %5, i64 %9
  %11 = load ptr, ptr %10, align 8, !tbaa !37
  %12 = getelementptr inbounds nuw i8, ptr %11, i64 8
  %13 = load i64, ptr %12, align 8, !tbaa !38
  %.phi.trans.insert = getelementptr inbounds nuw i8, ptr %11, i64 24
  %.pre = load i64, ptr %.phi.trans.insert, align 8, !tbaa !42
  switch i64 %13, label %lxb_html_tree_node_is.exit40.thread [
    i64 44, label %lxb_html_tree_node_is.exit
    i64 53, label %lxb_html_tree_node_is.exit40
  ]

lxb_html_tree_node_is.exit:                       ; preds = %.lr.ph
  %14 = icmp eq i64 %.pre, 2
  br i1 %14, label %15, label %lxb_html_tree_node_is.exit40.thread

15:                                               ; preds = %lxb_html_tree_node_is.exit
  tail call void @lxb_html_tree_generate_implied_end_tags(ptr noundef %0, i64 noundef 44, i64 noundef 2) #6
  %.val = load ptr, ptr %3, align 8, !tbaa !33
  %16 = getelementptr inbounds nuw i8, ptr %.val, i64 16
  %17 = load i64, ptr %16, align 8, !tbaa !34
  %18 = icmp eq i64 %17, 0
  br i1 %18, label %lxb_html_tree_current_node.exit, label %19

19:                                               ; preds = %15
  %20 = load ptr, ptr %.val, align 8, !tbaa !36
  %21 = getelementptr ptr, ptr %20, i64 %17
  %22 = getelementptr i8, ptr %21, i64 -8
  %23 = load ptr, ptr %22, align 8, !tbaa !37
  br label %lxb_html_tree_current_node.exit

lxb_html_tree_current_node.exit:                  ; preds = %15, %19
  %.0.i = phi ptr [ %23, %19 ], [ null, %15 ]
  %24 = getelementptr inbounds nuw i8, ptr %.0.i, i64 8
  %25 = load i64, ptr %24, align 8, !tbaa !38
  %26 = icmp eq i64 %25, 44
  br i1 %26, label %lxb_html_tree_node_is.exit39, label %lxb_html_tree_node_is.exit47.thread.sink.split.sink.split

lxb_html_tree_node_is.exit39:                     ; preds = %lxb_html_tree_current_node.exit
  %27 = getelementptr inbounds nuw i8, ptr %.0.i, i64 24
  %28 = load i64, ptr %27, align 8, !tbaa !42
  %29 = icmp eq i64 %28, 2
  br i1 %29, label %lxb_html_tree_node_is.exit47.thread.sink.split, label %lxb_html_tree_node_is.exit47.thread.sink.split.sink.split

lxb_html_tree_node_is.exit40:                     ; preds = %.lr.ph
  %30 = icmp eq i64 %.pre, 2
  br i1 %30, label %31, label %lxb_html_tree_node_is.exit40.thread

31:                                               ; preds = %lxb_html_tree_node_is.exit40
  tail call void @lxb_html_tree_generate_implied_end_tags(ptr noundef %0, i64 noundef 53, i64 noundef 2) #6
  %.val38 = load ptr, ptr %3, align 8, !tbaa !33
  %32 = getelementptr inbounds nuw i8, ptr %.val38, i64 16
  %33 = load i64, ptr %32, align 8, !tbaa !34
  %34 = icmp eq i64 %33, 0
  br i1 %34, label %lxb_html_tree_current_node.exit42, label %35

35:                                               ; preds = %31
  %36 = load ptr, ptr %.val38, align 8, !tbaa !36
  %37 = getelementptr ptr, ptr %36, i64 %33
  %38 = getelementptr i8, ptr %37, i64 -8
  %39 = load ptr, ptr %38, align 8, !tbaa !37
  br label %lxb_html_tree_current_node.exit42

lxb_html_tree_current_node.exit42:                ; preds = %31, %35
  %.0.i41 = phi ptr [ %39, %35 ], [ null, %31 ]
  %40 = getelementptr inbounds nuw i8, ptr %.0.i41, i64 8
  %41 = load i64, ptr %40, align 8, !tbaa !38
  %42 = icmp eq i64 %41, 53
  br i1 %42, label %lxb_html_tree_node_is.exit43, label %lxb_html_tree_node_is.exit47.thread.sink.split.sink.split

lxb_html_tree_node_is.exit43:                     ; preds = %lxb_html_tree_current_node.exit42
  %43 = getelementptr inbounds nuw i8, ptr %.0.i41, i64 24
  %44 = load i64, ptr %43, align 8, !tbaa !42
  %45 = icmp eq i64 %44, 2
  br i1 %45, label %lxb_html_tree_node_is.exit47.thread.sink.split, label %lxb_html_tree_node_is.exit47.thread.sink.split.sink.split

lxb_html_tree_node_is.exit40.thread:              ; preds = %.lr.ph, %lxb_html_tree_node_is.exit, %lxb_html_tree_node_is.exit40
  %46 = icmp ult i64 %13, 196
  %47 = icmp ult i64 %.pre, 8
  %or.cond.i = and i1 %46, %47
  br i1 %or.cond.i, label %lxb_html_tag_is_category.exit, label %lxb_html_tag_is_category.exit.thread

lxb_html_tag_is_category.exit:                    ; preds = %lxb_html_tree_node_is.exit40.thread
  %48 = getelementptr inbounds nuw [196 x [8 x i32]], ptr @lxb_html_tag_res_cats, i64 0, i64 %13, i64 %.pre
  %49 = load i32, ptr %48, align 4, !tbaa !45
  %50 = and i32 %49, 2
  %.not52 = icmp eq i32 %50, 0
  br i1 %.not52, label %lxb_html_tag_is_category.exit.thread, label %51

51:                                               ; preds = %lxb_html_tag_is_category.exit
  %trunc = trunc nuw i64 %13 to i8
  switch i8 %trunc, label %lxb_html_tree_node_is.exit47.thread [
    i8 9, label %lxb_html_tree_node_is.exit45
    i8 51, label %lxb_html_tree_node_is.exit46
    i8 -111, label %lxb_html_tree_node_is.exit47
  ]

lxb_html_tree_node_is.exit45:                     ; preds = %51
  %52 = icmp ne i64 %.pre, 2
  %.not.old.old = icmp eq i64 %9, 0
  %or.cond57 = or i1 %52, %.not.old.old
  br i1 %or.cond57, label %lxb_html_tree_node_is.exit47.thread, label %.lr.ph.backedge

lxb_html_tree_node_is.exit46:                     ; preds = %51
  %53 = icmp ne i64 %.pre, 2
  %.not.old = icmp eq i64 %9, 0
  %or.cond56 = or i1 %53, %.not.old
  br i1 %or.cond56, label %lxb_html_tree_node_is.exit47.thread, label %.lr.ph.backedge

lxb_html_tree_node_is.exit47:                     ; preds = %51
  %54 = icmp ne i64 %.pre, 2
  %.not = icmp eq i64 %9, 0
  %or.cond = or i1 %54, %.not
  br i1 %or.cond, label %lxb_html_tree_node_is.exit47.thread, label %.lr.ph.backedge

lxb_html_tag_is_category.exit.thread:             ; preds = %lxb_html_tree_node_is.exit40.thread, %lxb_html_tag_is_category.exit
  %.not.old.old.old = icmp eq i64 %9, 0
  br i1 %.not.old.old.old, label %lxb_html_tree_node_is.exit47.thread, label %.lr.ph.backedge

.lr.ph.backedge:                                  ; preds = %lxb_html_tag_is_category.exit.thread, %lxb_html_tree_node_is.exit47, %lxb_html_tree_node_is.exit46, %lxb_html_tree_node_is.exit45
  br label %.lr.ph

lxb_html_tree_node_is.exit47.thread.sink.split.sink.split: ; preds = %lxb_html_tree_node_is.exit43, %lxb_html_tree_current_node.exit42, %lxb_html_tree_node_is.exit39, %lxb_html_tree_current_node.exit
  tail call void @lxb_html_tree_parse_error(ptr noundef nonnull %0, ptr noundef %1, i32 noundef 22) #6
  br label %lxb_html_tree_node_is.exit47.thread.sink.split

lxb_html_tree_node_is.exit47.thread.sink.split:   ; preds = %lxb_html_tree_node_is.exit47.thread.sink.split.sink.split, %lxb_html_tree_node_is.exit43, %lxb_html_tree_node_is.exit39
  %.sink = phi i64 [ 44, %lxb_html_tree_node_is.exit39 ], [ 53, %lxb_html_tree_node_is.exit43 ], [ %13, %lxb_html_tree_node_is.exit47.thread.sink.split.sink.split ]
  tail call void @lxb_html_tree_open_elements_pop_until_tag_id(ptr noundef nonnull %0, i64 noundef %.sink, i64 noundef 2, i1 noundef zeroext true) #6
  br label %lxb_html_tree_node_is.exit47.thread

lxb_html_tree_node_is.exit47.thread:              ; preds = %lxb_html_tag_is_category.exit.thread, %lxb_html_tree_node_is.exit47, %lxb_html_tree_node_is.exit45, %lxb_html_tree_node_is.exit46, %51, %lxb_html_tree_node_is.exit47.thread.sink.split, %2
  %55 = tail call ptr @lxb_html_tree_element_in_scope(ptr noundef %0, i64 noundef 145, i64 noundef 2, i32 noundef 32) #6
  %.not37 = icmp eq ptr %55, null
  br i1 %.not37, label %57, label %56

56:                                               ; preds = %lxb_html_tree_node_is.exit47.thread
  tail call void @lxb_html_tree_close_p_element(ptr noundef %0, ptr noundef %1) #6
  br label %57

57:                                               ; preds = %56, %lxb_html_tree_node_is.exit47.thread
  %58 = tail call ptr @lxb_html_tree_insert_foreign_element(ptr noundef %0, ptr noundef %1, i64 noundef 2) #6
  %59 = icmp eq ptr %58, null
  br i1 %59, label %60, label %63

60:                                               ; preds = %57
  %61 = getelementptr inbounds nuw i8, ptr %0, i64 112
  store i32 2, ptr %61, align 8, !tbaa !22
  %62 = tail call zeroext i1 @lxb_html_tree_process_abort(ptr noundef %0) #6
  br label %63

63:                                               ; preds = %57, %60
  %.036 = phi i1 [ %62, %60 ], [ true, %57 ]
  ret i1 %.036
}